Certificate:
    Data:
        Version: 3 (0x2)
        Serial Number: 2 (0x2)
        Signature Algorithm: sha256WithRSAEncryption
        Issuer: C=US, ST=WA, L=Seattle, O=Contoso Corporation, OU=Sales Department, CN=my_root_ca
        Validity
            Not Before: Sep 14 07:26:11 2024 GMT
            Not After : Jan 30 07:26:11 2052 GMT
        Subject: C=US, ST=WA, L=Seattle, O=Contoso Corporation, OU=Sales Department, CN=intermediate-ca
        Subject Public Key Info:
            Public Key Algorithm: rsaEncryption
                Public-Key: (2048 bit)
                Modulus:
                    00:b0:04:3d:a1:12:56:1e:09:76:7d:cc:b6:f5:58:
                    6d:aa:c8:4f:5d:52:30:5e:7b:4b:42:82:fb:68:a7:
                    eb:02:28:fa:dd:b4:ec:71:74:e7:9f:39:b5:da:5d:
                    26:ea:95:e0:7f:3c:04:fa:31:f2:1c:e8:c7:64:b9:
                    c5:f0:7c:98:e9:13:7d:4e:85:28:20:a4:6e:5a:cc:
                    a6:59:f2:81:3f:7e:32:47:e7:11:8f:c1:a0:86:4a:
                    15:ae:fd:56:c4:88:be:66:f4:80:90:46:8d:d6:73:
                    72:65:e7:a8:93:13:cd:d7:d2:97:13:e4:82:eb:68:
                    0a:6a:83:d4:6e:05:3a:de:8e:5a:c9:f6:3a:6b:3f:
                    bf:0f:7d:cd:2f:fd:0d:2a:f0:2f:0a:21:32:52:ac:
                    ed:70:5c:3a:60:fe:b8:62:4a:0e:47:8a:cf:9f:c4:
                    05:c3:95:89:26:3b:cf:37:ce:57:8d:42:7f:14:e9:
                    c3:a7:30:ec:ab:8c:f7:b8:3d:82:2f:e9:73:19:6b:
                    8d:fe:61:ae:a8:46:23:bc:3f:a3:8a:f5:ba:15:93:
                    61:79:75:bb:e9:60:46:17:d1:ac:62:a4:07:c1:55:
                    f8:aa:a8:94:d2:5f:54:48:23:9a:d5:a8:60:1c:e4:
                    2d:de:80:e9:bc:9d:19:02:c2:9a:ac:20:63:65:73:
                    c5:fd
                Exponent: 65537 (0x10001)
        X509v3 extensions:
            X509v3 Basic Constraints: critical
                CA:TRUE
            X509v3 Key Usage: critical
                Digital Signature, Certificate Sign, CRL Sign
            X509v3 Subject Key Identifier: 
                09:9A:43:A8:80:B3:59:2B:43:DB:17:67:DF:9C:9D:34:C3:0B:CA:E6
            X509v3 Authority Key Identifier: 
                AE:89:56:62:0C:5C:22:D8:4C:81:75:AD:96:32:CF:93:9E:D7:4C:10
    Signature Algorithm: sha256WithRSAEncryption
    Signature Value:
        9f:42:d6:b6:de:54:4e:c2:96:e1:0f:1f:6b:cb:ea:f9:20:02:
        2a:3f:04:24:14:27:7e:be:cc:25:76:f5:b2:1c:ae:fe:22:98:
        57:94:04:06:0b:4b:b7:68:50:80:10:9d:47:f2:1b:1a:b1:ed:
        13:5c:23:9b:2f:ea:70:55:55:b9:5e:68:df:48:34:c6:61:45:
        93:11:94:68:ed:12:3e:a4:03:eb:42:8b:6a:94:ad:ef:a1:70:
        b8:40:38:f1:65:bf:d8:70:f6:c8:ff:3a:71:2d:cc:76:f3:5c:
        bc:48:23:e2:79:46:e1:d4:d8:76:67:e6:d1:80:c1:57:fd:2f:
        79:98:ed:93:91:d7:ff:06:54:bd:9b:38:cf:aa:1e:c2:15:cc:
        71:f1:9f:4d:e2:70:75:4d:da:95:8e:ee:7f:3d:f1:c9:1e:a4:
        fc:c2:14:8f:f9:68:09:e3:e5:27:92:94:bb:08:c7:ff:de:7a:
        63:ac:22:59:d2:f8:7a:4a:fb:4c:da:91:b8:6e:2c:31:83:15:
        bf:c4:a3:82:c6:b5:05:ab:24:b9:33:d1:d5:bf:f6:78:3c:0d:
        9f:0a:af:9c:7b:8f:8a:0f:5c:fd:51:99:c4:94:d5:c6:66:2b:
        9e:4e:c6:a2:ab:eb:de:d9:d0:80:43:a0:49:70:5a:af:85:18:
        5c:83:65:90
-----BEGIN CERTIFICATE-----
MIID2TCCAsGgAwIBAgIBAjANBgkqhkiG9w0BAQsFADB6MQswCQYDVQQGEwJVUzEL
MAkGA1UECAwCV0ExEDAOBgNVBAcMB1NlYXR0bGUxHDAaBgNVBAoME0NvbnRvc28g
Q29ycG9yYXRpb24xGTAXBgNVBAsMEFNhbGVzIERlcGFydG1lbnQxEzARBgNVBAMM
Cm15X3Jvb3RfY2EwIBcNMjQwOTE0MDcyNjExWhgPMjA1MjAxMzAwNzI2MTFaMH8x
CzAJBgNVBAYTAlVTMQswCQYDVQQIDAJXQTEQMA4GA1UEBwwHU2VhdHRsZTEcMBoG
A1UECgwTQ29udG9zbyBDb3Jwb3JhdGlvbjEZMBcGA1UECwwQU2FsZXMgRGVwYXJ0
bWVudDEYMBYGA1UEAwwPaW50ZXJtZWRpYXRlLWNhMIIBIjANBgkqhkiG9w0BAQEF
AAOCAQ8AMIIBCgKCAQEAsAQ9oRJWHgl2fcy29VhtqshPXVIwXntLQoL7aKfrAij6
3bTscXTnnzm12l0m6pXgfzwE+jHyHOjHZLnF8HyY6RN9ToUoIKRuWsymWfKBP34y
R+cRj8GghkoVrv1WxIi+ZvSAkEaN1nNyZeeokxPN19KXE+SC62gKaoPUbgU63o5a
yfY6az+/D33NL/0NKvAvCiEyUqztcFw6YP64YkoOR4rPn8QFw5WJJjvPN85XjUJ/
FOnDpzDsq4z3uD2CL+lzGWuN/mGuqEYjvD+jivW6FZNheXW76WBGF9GsYqQHwVX4
qqiU0l9USCOa1ahgHOQt3oDpvJ0ZAsKarCBjZXPF/QIDAQABo2MwYTAPBgNVHRMB
Af8EBTADAQH/MA4GA1UdDwEB/wQEAwIBhjAdBgNVHQ4EFgQUCZpDqICzWStD2xdn
35ydNMMLyuYwHwYDVR0jBBgwFoAUrolWYgxcIthMgXWtljLPk57XTBAwDQYJKoZI
hvcNAQELBQADggEBAJ9C1rbeVE7CluEPH2vL6vkgAio/BCQUJ36+zCV29bIcrv4i
mFeUBAYLS7doUIAQnUfyGxqx7RNcI5sv6nBVVbleaN9INMZhRZMRlGjtEj6kA+tC
i2qUre+hcLhAOPFlv9hw9sj/OnEtzHbzXLxII+J5RuHU2HZn5tGAwVf9L3mY7ZOR
1/8GVL2bOM+qHsIVzHHxn03icHVN2pWO7n898ckepPzCFI/5aAnj5SeSlLsIx//e
emOsIlnS+HpK+0zakbhuLDGDFb/Eo4LGtQWrJLkz0dW/9ng8DZ8Kr5x7j4oPXP1R
mcSU1cZmK55OxqKr697Z0IBDoElwWq+FGFyDZZA=
-----END CERTIFICATE-----
