Certificate:
    Data:
        Version: 3 (0x2)
        Serial Number: 0 (0x0)
        Signature Algorithm: sha256WithRSAEncryption
        Issuer: C=US, ST=WA, L=Seattle, O=Contoso Corporation, OU=Sales Department, CN=intermediate-ca
        Validity
            Not Before: Sep 14 07:26:11 2024 GMT
            Not After : Jan 30 07:26:11 2052 GMT
        Subject: C=US, ST=WA, L=Seattle, O=Contoso Corporation, OU=Sales Department, CN=my_server2
        Subject Public Key Info:
            Public Key Algorithm: rsaEncryption
                Public-Key: (2048 bit)
                Modulus:
                    00:b7:d0:1b:a3:1c:0e:26:31:a6:a6:22:e6:c5:f5:
                    c3:89:fe:36:1b:08:84:7c:06:44:4d:87:a6:68:6e:
                    c5:ed:58:04:02:15:31:54:54:50:9c:70:2d:5b:b9:
                    39:62:fc:8c:18:34:c2:d3:2f:3e:57:78:65:85:23:
                    91:32:23:06:10:dd:9f:09:25:69:ab:85:6d:33:a5:
                    17:bf:36:76:08:4c:ce:2c:3d:6f:f3:5e:4d:6f:fa:
                    36:ae:51:e0:e1:db:e3:94:a5:60:31:aa:69:8e:8e:
                    01:dd:e7:cc:e1:69:05:d5:75:da:ef:fb:c5:b9:da:
                    b7:00:15:2b:1b:bb:08:ab:4c:fa:6a:12:67:f4:c8:
                    90:69:cf:bd:9a:24:8c:49:8d:be:78:81:f6:31:ab:
                    b8:5f:0d:51:c6:25:72:58:bd:8c:a8:0d:4d:25:8d:
                    fe:9d:41:ef:55:7a:81:4e:91:b4:c5:5e:6c:31:35:
                    bc:c9:bb:c9:d8:4b:5f:d6:1b:4f:8c:f5:f6:dd:c6:
                    b6:e6:7e:7c:f2:6f:5c:25:94:d1:cd:d4:ad:da:5f:
                    99:f5:f2:f5:1d:c4:2d:55:6b:94:40:30:98:a0:a0:
                    89:ab:55:6d:9e:10:9a:dd:34:f3:79:4a:97:55:68:
                    59:f9:77:9b:e3:e8:68:41:d4:33:a1:3a:cf:db:a7:
                    fe:ef
                Exponent: 65537 (0x10001)
        X509v3 extensions:
            X509v3 Basic Constraints: 
                CA:FALSE
            Netscape Cert Type: 
                SSL Server
            X509v3 Key Usage: critical
                Digital Signature, Key Encipherment
            X509v3 Extended Key Usage: 
                TLS Web Server Authentication
            X509v3 Subject Key Identifier: 
                6E:D9:00:FB:33:CB:C6:43:EF:12:2E:B9:9C:6C:33:69:97:3E:AA:0A
            X509v3 Authority Key Identifier: 
                09:9A:43:A8:80:B3:59:2B:43:DB:17:67:DF:9C:9D:34:C3:0B:CA:E6
    Signature Algorithm: sha256WithRSAEncryption
    Signature Value:
        4c:e7:81:aa:4c:3f:72:c1:16:21:92:79:5c:53:ea:5a:0e:75:
        5e:ef:7b:ed:e2:38:f3:9f:19:63:4f:b4:0b:71:b2:f2:25:cd:
        20:43:7a:cd:2e:4b:06:c4:db:28:75:a3:1d:7f:62:13:ea:a5:
        40:65:45:95:a5:e8:4c:2d:7e:7c:6d:d3:11:39:03:eb:cc:b5:
        3c:53:f9:49:48:73:09:a7:aa:18:2f:1d:b7:c6:3d:ac:ac:4f:
        51:0d:88:52:d0:a6:2a:04:c2:98:84:62:f7:e1:cb:2d:ad:e6:
        bf:09:95:c1:aa:8b:c1:85:4c:04:af:42:33:8a:a4:94:34:7c:
        13:d7:41:4a:c2:d8:f1:a1:e7:e2:e1:cb:12:16:f1:7d:cd:17:
        01:98:af:f5:a2:75:95:00:9b:6c:a0:5e:da:e9:fe:31:70:e9:
        a3:1c:1d:e2:ce:5b:44:09:31:05:8c:46:1e:fa:7c:79:02:cf:
        33:78:c5:44:b9:f5:72:d3:5f:6d:0d:9a:01:84:32:7a:48:54:
        05:1f:cf:fe:91:a6:0d:61:db:08:4e:a6:8d:b6:df:20:92:f4:
        a0:db:9b:f2:1a:4c:3c:db:41:a2:9c:7d:76:9a:e5:73:75:64:
        28:40:4e:48:f3:98:73:e1:eb:14:fb:39:5e:61:cf:56:d5:b9:
        e9:33:bf:32
-----BEGIN CERTIFICATE-----
MIID/TCCAuWgAwIBAgIBADANBgkqhkiG9w0BAQsFADB/MQswCQYDVQQGEwJVUzEL
MAkGA1UECAwCV0ExEDAOBgNVBAcMB1NlYXR0bGUxHDAaBgNVBAoME0NvbnRvc28g
Q29ycG9yYXRpb24xGTAXBgNVBAsMEFNhbGVzIERlcGFydG1lbnQxGDAWBgNVBAMM
D2ludGVybWVkaWF0ZS1jYTAgFw0yNDA5MTQwNzI2MTFaGA8yMDUyMDEzMDA3MjYx
MVowejELMAkGA1UEBhMCVVMxCzAJBgNVBAgMAldBMRAwDgYDVQQHDAdTZWF0dGxl
MRwwGgYDVQQKDBNDb250b3NvIENvcnBvcmF0aW9uMRkwFwYDVQQLDBBTYWxlcyBE
ZXBhcnRtZW50MRMwEQYDVQQDDApteV9zZXJ2ZXIyMIIBIjANBgkqhkiG9w0BAQEF
AAOCAQ8AMIIBCgKCAQEAt9AboxwOJjGmpiLmxfXDif42GwiEfAZETYemaG7F7VgE
AhUxVFRQnHAtW7k5YvyMGDTC0y8+V3hlhSORMiMGEN2fCSVpq4VtM6UXvzZ2CEzO
LD1v815Nb/o2rlHg4dvjlKVgMappjo4B3efM4WkF1XXa7/vFudq3ABUrG7sIq0z6
ahJn9MiQac+9miSMSY2+eIH2Mau4Xw1RxiVyWL2MqA1NJY3+nUHvVXqBTpG0xV5s
MTW8ybvJ2Etf1htPjPX23ca25n588m9cJZTRzdSt2l+Z9fL1HcQtVWuUQDCYoKCJ
q1VtnhCa3TTzeUqXVWhZ+Xeb4+hoQdQzoTrP26f+7wIDAQABo4GGMIGDMAkGA1Ud
EwQCMAAwEQYJYIZIAYb4QgEBBAQDAgZAMA4GA1UdDwEB/wQEAwIFoDATBgNVHSUE
DDAKBggrBgEFBQcDATAdBgNVHQ4EFgQUbtkA+zPLxkPvEi65nGwzaZc+qgowHwYD
VR0jBBgwFoAUCZpDqICzWStD2xdn35ydNMMLyuYwDQYJKoZIhvcNAQELBQADggEB
AEzngapMP3LBFiGSeVxT6loOdV7ve+3iOPOfGWNPtAtxsvIlzSBDes0uSwbE2yh1
ox1/YhPqpUBlRZWl6Ewtfnxt0xE5A+vMtTxT+UlIcwmnqhgvHbfGPaysT1ENiFLQ
pioEwpiEYvfhyy2t5r8JlcGqi8GFTASvQjOKpJQ0fBPXQUrC2PGh5+LhyxIW8X3N
FwGYr/WidZUAm2ygXtrp/jFw6aMcHeLOW0QJMQWMRh76fHkCzzN4xUS59XLTX20N
mgGEMnpIVAUfz/6Rpg1h2whOpo223yCS9KDbm/IaTDzbQaKcfXaa5XN1ZChATkjz
mHPh6xT7OV5hz1bVuekzvzI=
-----END CERTIFICATE-----
