Certificate:
    Data:
        Version: 3 (0x2)
        Serial Number: 1 (0x1)
        Signature Algorithm: sha256WithRSAEncryption
        Issuer: C=US, ST=WA, L=Seattle, O=Contoso Corporation, OU=Sales Department, CN=my_root_ca
        Validity
            Not Before: Sep 14 07:26:11 2024 GMT
            Not After : Jan 30 07:26:11 2052 GMT
        Subject: C=US, ST=WA, L=Seattle, O=Contoso Corporation, CN=user1/emailAddress=user1@my_server
        Subject Public Key Info:
            Public Key Algorithm: rsaEncryption
                Public-Key: (2048 bit)
                Modulus:
                    00:ba:5b:33:40:68:54:96:4f:c5:92:9e:b2:a9:be:
                    48:38:41:6c:b1:d7:e6:6e:64:10:49:b5:e7:6b:29:
                    74:7f:18:7b:b5:b8:be:08:47:cc:d7:75:d4:28:d3:
                    54:e2:c2:72:93:e4:71:1c:49:7b:59:b8:40:bf:78:
                    95:70:ff:b9:2e:47:f0:15:86:ac:26:0b:f0:6a:22:
                    d5:c3:90:b7:0b:b6:41:e5:c6:48:ce:e9:9b:aa:c3:
                    c1:fc:be:72:be:1e:b8:a8:ab:e1:df:b6:cb:8b:8c:
                    cd:40:2c:b9:36:5c:26:e5:52:d8:e9:36:85:ba:94:
                    3d:ed:e5:d0:32:ff:43:28:69:86:0d:aa:72:69:18:
                    17:48:cc:13:c3:7b:73:94:0b:dd:0a:be:02:6f:41:
                    75:b3:dd:b7:9e:6e:de:09:59:a0:83:11:5f:e7:7f:
                    24:6f:0f:93:90:5e:2c:a2:f3:77:21:6f:ae:16:16:
                    f5:0f:92:08:65:04:b6:51:ca:b5:2e:e8:7c:80:54:
                    ac:5c:db:77:97:ed:3f:97:7d:c7:f8:66:82:17:a2:
                    3c:19:7a:fa:f1:95:61:a1:0d:e3:4e:ff:82:b7:3d:
                    3e:82:d9:b2:15:fd:f4:e2:d0:2b:d2:b9:5e:90:ae:
                    7c:89:34:f5:eb:a4:60:67:28:d9:b2:2c:80:a0:61:
                    53:fd
                Exponent: 65537 (0x10001)
        X509v3 extensions:
            X509v3 Basic Constraints: 
                CA:FALSE
            Netscape Cert Type: 
                SSL Client, S/MIME
            X509v3 Key Usage: critical
                Digital Signature, Non Repudiation, Key Encipherment
            X509v3 Extended Key Usage: 
                TLS Web Client Authentication, E-mail Protection
            X509v3 Subject Key Identifier: 
                08:13:4E:CC:2C:E8:52:31:63:2A:84:0A:A0:06:81:86:D4:30:75:EA
            X509v3 Authority Key Identifier: 
                AE:89:56:62:0C:5C:22:D8:4C:81:75:AD:96:32:CF:93:9E:D7:4C:10
    Signature Algorithm: sha256WithRSAEncryption
    Signature Value:
        31:62:50:b8:08:97:a0:64:43:84:b4:aa:ba:28:14:cd:85:f2:
        65:64:55:c8:9b:6d:74:41:67:ba:4a:70:8e:5f:4b:ed:57:bd:
        37:23:04:d2:37:b1:a1:99:4f:91:05:73:05:99:8c:a0:e9:3c:
        72:e8:5a:72:48:7d:6c:12:45:d7:08:e0:f8:7a:e1:2e:19:31:
        38:2d:56:56:c6:ec:b5:f1:29:6c:f7:8a:ae:57:7f:aa:b3:4f:
        07:be:7f:5e:16:57:7e:c4:59:7a:13:10:d1:38:e9:9f:85:ab:
        a6:8a:19:5f:96:d7:2f:00:da:f0:c4:be:2c:a9:5c:6e:92:79:
        94:ab:c1:6b:5c:0e:be:e1:f9:70:b4:f1:cf:08:32:13:6c:4e:
        64:b2:4d:79:1f:05:e7:a9:56:e4:89:81:7d:70:be:8f:8f:d9:
        a9:90:12:35:8c:43:dc:26:9f:b3:b6:37:36:68:de:cf:ea:74:
        01:10:40:51:0c:33:10:19:6e:86:29:c9:c9:93:a1:99:f3:4b:
        f6:04:11:31:1e:68:a5:bd:73:f6:4b:b5:0e:48:de:7b:eb:ee:
        30:e2:67:93:c9:a6:a2:3a:54:4f:cf:f1:e0:81:16:6d:af:64:
        10:2a:bf:1e:25:af:ca:e5:3e:47:29:92:43:9b:9b:4f:43:ad:
        43:13:70:6a
-----BEGIN CERTIFICATE-----
MIIEAjCCAuqgAwIBAgIBATANBgkqhkiG9w0BAQsFADB6MQswCQYDVQQGEwJVUzEL
MAkGA1UECAwCV0ExEDAOBgNVBAcMB1NlYXR0bGUxHDAaBgNVBAoME0NvbnRvc28g
Q29ycG9yYXRpb24xGTAXBgNVBAsMEFNhbGVzIERlcGFydG1lbnQxEzARBgNVBAMM
Cm15X3Jvb3RfY2EwIBcNMjQwOTE0MDcyNjExWhgPMjA1MjAxMzAwNzI2MTFaMHox
CzAJBgNVBAYTAlVTMQswCQYDVQQIDAJXQTEQMA4GA1UEBwwHU2VhdHRsZTEcMBoG
A1UECgwTQ29udG9zbyBDb3Jwb3JhdGlvbjEOMAwGA1UEAwwFdXNlcjExHjAcBgkq
hkiG9w0BCQEWD3VzZXIxQG15X3NlcnZlcjCCASIwDQYJKoZIhvcNAQEBBQADggEP
ADCCAQoCggEBALpbM0BoVJZPxZKesqm+SDhBbLHX5m5kEEm152spdH8Ye7W4vghH
zNd11CjTVOLCcpPkcRxJe1m4QL94lXD/uS5H8BWGrCYL8Goi1cOQtwu2QeXGSM7p
m6rDwfy+cr4euKir4d+2y4uMzUAsuTZcJuVS2Ok2hbqUPe3l0DL/Qyhphg2qcmkY
F0jME8N7c5QL3Qq+Am9BdbPdt55u3glZoIMRX+d/JG8Pk5BeLKLzdyFvrhYW9Q+S
CGUEtlHKtS7ofIBUrFzbd5ftP5d9x/hmgheiPBl6+vGVYaEN407/grc9PoLZshX9
9OLQK9K5XpCufIk09eukYGco2bIsgKBhU/0CAwEAAaOBkDCBjTAJBgNVHRMEAjAA
MBEGCWCGSAGG+EIBAQQEAwIFoDAOBgNVHQ8BAf8EBAMCBeAwHQYDVR0lBBYwFAYI
KwYBBQUHAwIGCCsGAQUFBwMEMB0GA1UdDgQWBBQIE07MLOhSMWMqhAqgBoGG1DB1
6jAfBgNVHSMEGDAWgBSuiVZiDFwi2EyBda2WMs+TntdMEDANBgkqhkiG9w0BAQsF
AAOCAQEAMWJQuAiXoGRDhLSquigUzYXyZWRVyJttdEFnukpwjl9L7Ve9NyME0jex
oZlPkQVzBZmMoOk8cuhackh9bBJF1wjg+HrhLhkxOC1WVsbstfEpbPeKrld/qrNP
B75/XhZXfsRZehMQ0Tjpn4WrpooZX5bXLwDa8MS+LKlcbpJ5lKvBa1wOvuH5cLTx
zwgyE2xOZLJNeR8F56lW5ImBfXC+j4/ZqZASNYxD3Cafs7Y3Nmjez+p0ARBAUQwz
EBluhinJyZOhmfNL9gQRMR5opb1z9ku1Dkjee+vuMOJnk8mmojpUT8/x4IEWba9k
ECq/HiWvyuU+RymSQ5ubT0OtQxNwag==
-----END CERTIFICATE-----
